target datalayout = "e-m:e-p270:32:32-p271:32:32-p272:64:64-i64:64-i128:128-f80:128-n8:16:32:64-S128"
target triple = "x86_64-pc-linux-gnu"

%struct.aiString = type { i32, [1024 x i8] }
%class.aiVector3t = type { float, float, float }
%struct.aiLight = type { %struct.aiString, i32, %class.aiVector3t, %class.aiVector3t, %class.aiVector3t, float, float, float, %struct.aiColor3D, %struct.aiColor3D, %struct.aiColor3D, float, float, %class.aiVector2t }
%struct.aiColor3D = type { float, float, float }
%class.aiVector2t = type { float, float }

@.str.23 = private unnamed_addr constant [42 x i8] c"aiLight::mType is aiLightSource_UNDEFINED\00", align 1
@.str.24 = private unnamed_addr constant [40 x i8] c"aiLight::mAttenuationXXX - all are zero\00", align 1
@.str.25 = private unnamed_addr constant [65 x i8] c"aiLight::mAngleInnerCone is larger than aiLight::mAngleOuterCone\00", align 1
@.str.26 = private unnamed_addr constant [64 x i8] c"aiLight::mColorXXX - all are black and won't have any influence\00", align 1

; Function Attrs: inlinehint mustprogress nounwind uwtable
define linkonce_odr noundef float @_ZSt4fabsf(float noundef %0) #11 comdat {
  %2 = alloca float, align 4
  store float %0, ptr %2, align 4
  %3 = load float, ptr %2, align 4
  %4 = call float @llvm.fabs.f32(float %3)
  ret float %4
}

; Function Attrs: mustprogress uwtable
define linkonce_odr hidden noundef zeroext i1 @_ZNK9aiColor3D7IsBlackEv(ptr noundef nonnull align 4 dereferenceable(12) %0) #5 comdat align 2 {
  %2 = alloca ptr, align 8
  store ptr %0, ptr %2, align 8
  %3 = load ptr, ptr %2, align 8
  %4 = getelementptr inbounds nuw %struct.aiColor3D, ptr %3, i32 0, i32 0
  %5 = load float, ptr %4, align 4
  %6 = call noundef float @_ZSt4fabsf(float noundef %5)
  %7 = fcmp olt float %6, 0x3F847AE140000000
  br i1 %7, label %8, label %18

8:                                                ; preds = %1
  %9 = getelementptr inbounds nuw %struct.aiColor3D, ptr %3, i32 0, i32 1
  %10 = load float, ptr %9, align 4
  %11 = call noundef float @_ZSt4fabsf(float noundef %10)
  %12 = fcmp olt float %11, 0x3F847AE140000000
  br i1 %12, label %13, label %18

13:                                               ; preds = %8
  %14 = getelementptr inbounds nuw %struct.aiColor3D, ptr %3, i32 0, i32 2
  %15 = load float, ptr %14, align 4
  %16 = call noundef float @_ZSt4fabsf(float noundef %15)
  %17 = fcmp olt float %16, 0x3F847AE140000000
  br label %18

18:                                               ; preds = %13, %8, %1
  %19 = phi i1 [ false, %8 ], [ false, %1 ], [ %17, %13 ]
  ret i1 %19
}

; Function Attrs: mustprogress uwtable
define hidden void @_ZN6Assimp17ValidateDSProcess8ValidateEPK7aiLight(ptr noundef nonnull align 8 dereferenceable(32) %0, ptr noundef %1) #5 align 2 {
  %3 = alloca ptr, align 8
  %4 = alloca ptr, align 8
  store ptr %0, ptr %3, align 8
  store ptr %1, ptr %4, align 8
  %5 = load ptr, ptr %3, align 8
  %6 = load ptr, ptr %4, align 8
  %7 = getelementptr inbounds nuw %struct.aiLight, ptr %6, i32 0, i32 1
  %8 = load i32, ptr %7, align 4
  %9 = icmp eq i32 %8, 0
  br i1 %9, label %10, label %11

10:                                               ; preds = %2
  call void (ptr, ptr, ...) @_ZN6Assimp17ValidateDSProcess13ReportWarningEPKcz(ptr noundef nonnull align 8 dereferenceable(32) %5, ptr noundef @.str.23)
  br label %11

11:                                               ; preds = %10, %2
  %12 = load ptr, ptr %4, align 8
  %13 = getelementptr inbounds nuw %struct.aiLight, ptr %12, i32 0, i32 5
  %14 = load float, ptr %13, align 4
  %15 = fcmp une float %14, 0.000000e+00
  br i1 %15, label %27, label %16

16:                                               ; preds = %11
  %17 = load ptr, ptr %4, align 8
  %18 = getelementptr inbounds nuw %struct.aiLight, ptr %17, i32 0, i32 6
  %19 = load float, ptr %18, align 4
  %20 = fcmp une float %19, 0.000000e+00
  br i1 %20, label %27, label %21

21:                                               ; preds = %16
  %22 = load ptr, ptr %4, align 8
  %23 = getelementptr inbounds nuw %struct.aiLight, ptr %22, i32 0, i32 7
  %24 = load float, ptr %23, align 4
  %25 = fcmp une float %24, 0.000000e+00
  br i1 %25, label %27, label %26

26:                                               ; preds = %21
  call void (ptr, ptr, ...) @_ZN6Assimp17ValidateDSProcess13ReportWarningEPKcz(ptr noundef nonnull align 8 dereferenceable(32) %5, ptr noundef @.str.24)
  br label %27

27:                                               ; preds = %26, %21, %16, %11
  %28 = load ptr, ptr %4, align 8
  %29 = getelementptr inbounds nuw %struct.aiLight, ptr %28, i32 0, i32 11
  %30 = load float, ptr %29, align 4
  %31 = load ptr, ptr %4, align 8
  %32 = getelementptr inbounds nuw %struct.aiLight, ptr %31, i32 0, i32 12
  %33 = load float, ptr %32, align 4
  %34 = fcmp ogt float %30, %33
  br i1 %34, label %35, label %36

35:                                               ; preds = %27
  call void (ptr, ptr, ...) @_ZN6Assimp17ValidateDSProcess11ReportErrorEPKcz(ptr noundef nonnull align 8 dereferenceable(32) %5, ptr noundef @.str.25) #20
  unreachable

36:                                               ; preds = %27
  %37 = load ptr, ptr %4, align 8
  %38 = getelementptr inbounds nuw %struct.aiLight, ptr %37, i32 0, i32 8
  %39 = call noundef zeroext i1 @_ZNK9aiColor3D7IsBlackEv(ptr noundef nonnull align 4 dereferenceable(12) %38)
  br i1 %39, label %40, label %49

40:                                               ; preds = %36
  %41 = load ptr, ptr %4, align 8
  %42 = getelementptr inbounds nuw %struct.aiLight, ptr %41, i32 0, i32 10
  %43 = call noundef zeroext i1 @_ZNK9aiColor3D7IsBlackEv(ptr noundef nonnull align 4 dereferenceable(12) %42)
  br i1 %43, label %44, label %49

44:                                               ; preds = %40
  %45 = load ptr, ptr %4, align 8
  %46 = getelementptr inbounds nuw %struct.aiLight, ptr %45, i32 0, i32 9
  %47 = call noundef zeroext i1 @_ZNK9aiColor3D7IsBlackEv(ptr noundef nonnull align 4 dereferenceable(12) %46)
  br i1 %47, label %48, label %49

48:                                               ; preds = %44
  call void (ptr, ptr, ...) @_ZN6Assimp17ValidateDSProcess13ReportWarningEPKcz(ptr noundef nonnull align 8 dereferenceable(32) %5, ptr noundef @.str.26)
  br label %49

49:                                               ; preds = %48, %44, %40, %36
  ret void
}