; Function Attrs: mustprogress uwtable
define hidden void @_ZN6Assimp17ValidateDSProcess8ValidateEPK7aiLight(ptr nonnull readnone align 8 captures(none) %0, ptr noundef readonly captures(none) %1) local_unnamed_addr #7 align 2 {
  %3 = getelementptr inbounds nuw i8, ptr %1, i64 1028
  %4 = load i32, ptr %3, align 4
  %5 = icmp eq i32 %4, 0
  br i1 %5, label %6, label %7

6:                                                ; preds = %2
  tail call void (ptr, ptr, ...) @_ZN6Assimp17ValidateDSProcess13ReportWarningEPKcz(ptr nonnull align 8 poison, ptr noundef nonnull @.str.23)
  br label %7

7:                                                ; preds = %6, %2
  %8 = getelementptr inbounds nuw i8, ptr %1, i64 1068
  %9 = load float, ptr %8, align 4
  %10 = fcmp une float %9, 0.000000e+00
  br i1 %10, label %20, label %11

11:                                               ; preds = %7
  %12 = getelementptr inbounds nuw i8, ptr %1, i64 1072
  %13 = load float, ptr %12, align 4
  %14 = fcmp une float %13, 0.000000e+00
  br i1 %14, label %20, label %15

15:                                               ; preds = %11
  %16 = getelementptr inbounds nuw i8, ptr %1, i64 1076
  %17 = load float, ptr %16, align 4
  %18 = fcmp une float %17, 0.000000e+00
  br i1 %18, label %20, label %19

19:                                               ; preds = %15
  tail call void (ptr, ptr, ...) @_ZN6Assimp17ValidateDSProcess13ReportWarningEPKcz(ptr nonnull align 8 poison, ptr noundef nonnull @.str.24)
  br label %20

20:                                               ; preds = %19, %15, %11, %7
  %21 = getelementptr inbounds nuw i8, ptr %1, i64 1116
  %22 = load float, ptr %21, align 4
  %23 = getelementptr inbounds nuw i8, ptr %1, i64 1120
  %24 = load float, ptr %23, align 4
  %25 = fcmp ogt float %22, %24
  br i1 %25, label %26, label %27

26:                                               ; preds = %20
  tail call void (ptr, ptr, ...) @_ZN6Assimp17ValidateDSProcess11ReportErrorEPKcz(ptr nonnull align 8 poison, ptr noundef nonnull @.str.25) #24
  unreachable

27:                                               ; preds = %20
  %28 = getelementptr inbounds nuw i8, ptr %1, i64 1080
  %29 = load float, ptr %28, align 4
  %30 = tail call noundef float @llvm.fabs.f32(float %29)
  %31 = fcmp olt float %30, 0x3F847AE140000000
  br i1 %31, label %32, label %_ZNK9aiColor3D7IsBlackEv.exit.thread

32:                                               ; preds = %27
  %33 = getelementptr inbounds nuw i8, ptr %1, i64 1084
  %34 = load float, ptr %33, align 4
  %35 = tail call noundef float @llvm.fabs.f32(float %34)
  %36 = fcmp olt float %35, 0x3F847AE140000000
  br i1 %36, label %_ZNK9aiColor3D7IsBlackEv.exit, label %_ZNK9aiColor3D7IsBlackEv.exit.thread

_ZNK9aiColor3D7IsBlackEv.exit:                    ; preds = %32
  %37 = getelementptr inbounds nuw i8, ptr %1, i64 1088
  %38 = load float, ptr %37, align 4
  %39 = tail call noundef float @llvm.fabs.f32(float %38)
  %40 = fcmp olt float %39, 0x3F847AE140000000
  br i1 %40, label %41, label %_ZNK9aiColor3D7IsBlackEv.exit.thread

41:                                               ; preds = %_ZNK9aiColor3D7IsBlackEv.exit
  %42 = getelementptr inbounds nuw i8, ptr %1, i64 1104
  %43 = load float, ptr %42, align 4
  %44 = tail call noundef float @llvm.fabs.f32(float %43)
  %45 = fcmp olt float %44, 0x3F847AE140000000
  br i1 %45, label %46, label %_ZNK9aiColor3D7IsBlackEv.exit.thread

46:                                               ; preds = %41
  %47 = getelementptr inbounds nuw i8, ptr %1, i64 1108
  %48 = load float, ptr %47, align 4
  %49 = tail call noundef float @llvm.fabs.f32(float %48)
  %50 = fcmp olt float %49, 0x3F847AE140000000
  br i1 %50, label %_ZNK9aiColor3D7IsBlackEv.exit10, label %_ZNK9aiColor3D7IsBlackEv.exit.thread

_ZNK9aiColor3D7IsBlackEv.exit10:                  ; preds = %46
  %51 = getelementptr inbounds nuw i8, ptr %1, i64 1112
  %52 = load float, ptr %51, align 4
  %53 = tail call noundef float @llvm.fabs.f32(float %52)
  %54 = fcmp olt float %53, 0x3F847AE140000000
  br i1 %54, label %55, label %_ZNK9aiColor3D7IsBlackEv.exit.thread

55:                                               ; preds = %_ZNK9aiColor3D7IsBlackEv.exit10
  %56 = getelementptr inbounds nuw i8, ptr %1, i64 1092
  %57 = load float, ptr %56, align 4
  %58 = tail call noundef float @llvm.fabs.f32(float %57)
  %59 = fcmp olt float %58, 0x3F847AE140000000
  br i1 %59, label %60, label %_ZNK9aiColor3D7IsBlackEv.exit.thread

60:                                               ; preds = %55
  %61 = getelementptr inbounds nuw i8, ptr %1, i64 1096
  %62 = load float, ptr %61, align 4
  %63 = tail call noundef float @llvm.fabs.f32(float %62)
  %64 = fcmp olt float %63, 0x3F847AE140000000
  br i1 %64, label %_ZNK9aiColor3D7IsBlackEv.exit11, label %_ZNK9aiColor3D7IsBlackEv.exit.thread

_ZNK9aiColor3D7IsBlackEv.exit11:                  ; preds = %60
  %65 = getelementptr inbounds nuw i8, ptr %1, i64 1100
  %66 = load float, ptr %65, align 4
  %67 = tail call noundef float @llvm.fabs.f32(float %66)
  %68 = fcmp olt float %67, 0x3F847AE140000000
  br i1 %68, label %69, label %_ZNK9aiColor3D7IsBlackEv.exit.thread

69:                                               ; preds = %_ZNK9aiColor3D7IsBlackEv.exit11
  tail call void (ptr, ptr, ...) @_ZN6Assimp17ValidateDSProcess13ReportWarningEPKcz(ptr nonnull align 8 poison, ptr noundef nonnull @.str.26)
  br label %_ZNK9aiColor3D7IsBlackEv.exit.thread

_ZNK9aiColor3D7IsBlackEv.exit.thread:             ; preds = %55, %60, %41, %46, %27, %32, %69, %_ZNK9aiColor3D7IsBlackEv.exit11, %_ZNK9aiColor3D7IsBlackEv.exit10, %_ZNK9aiColor3D7IsBlackEv.exit
  ret void
}